; Function Attrs: mustprogress nounwind uwtable
define hidden i32 @_ZN14GenerateOopMap11monitor_popEv(ptr nocapture noundef nonnull align 8 dereferenceable(176) %0) local_unnamed_addr #0 align 2 {
  %2 = getelementptr inbounds i8, ptr %0, i64 92
  %3 = load i32, ptr %2, align 4
  %4 = icmp eq i32 %3, 0
  br i1 %4, label %5, label %9

5:                                                ; preds = %1
  %6 = getelementptr inbounds i8, ptr %0, i64 66
  store i8 0, ptr %6, align 2
  store i32 -1, ptr %2, align 4
  %7 = load volatile ptr, ptr getelementptr inbounds (i8, ptr @_ZN16LogTagSetMappingILN6LogTag4typeE91ELS1_0ELS1_0ELS1_0ELS1_0ELS1_0EE7_tagsetE, i64 64), align 8
  %.not = icmp eq ptr %7, null
  br i1 %.not, label %23, label %8

8:                                                ; preds = %5
  tail call void @_ZN14GenerateOopMap23report_monitor_mismatchEPKc(ptr noundef nonnull align 8 dereferenceable(176) %0, ptr noundef nonnull @.str.34)
  br label %23

9:                                                ; preds = %1
  %10 = getelementptr inbounds i8, ptr %0, i64 72
  %11 = load ptr, ptr %10, align 8
  %12 = getelementptr inbounds i8, ptr %0, i64 32
  %13 = load i32, ptr %12, align 8
  %14 = sext i32 %13 to i64
  %15 = getelementptr inbounds %class.CellTypeState, ptr %11, i64 %14
  %16 = getelementptr inbounds i8, ptr %0, i64 36
  %17 = load i32, ptr %16, align 4
  %18 = sext i32 %17 to i64
  %19 = getelementptr inbounds %class.CellTypeState, ptr %15, i64 %18
  %20 = add nsw i32 %3, -1
  store i32 %20, ptr %2, align 4
  %21 = sext i32 %20 to i64
  %22 = getelementptr inbounds %class.CellTypeState, ptr %19, i64 %21
  br label %23

23:                                               ; preds = %5, %8, %9
  %.sroa.0.0.in = phi ptr [ %22, %9 ], [ @_ZN13CellTypeState3refE, %8 ], [ @_ZN13CellTypeState3refE, %5 ]
  %.sroa.0.0 = load i32, ptr %.sroa.0.0.in, align 4
  ret i32 %.sroa.0.0
}